; ModuleID = 'probe4.4dd4fc574fd8c6fd-cgu.0'
source_filename = "probe4.4dd4fc574fd8c6fd-cgu.0"
target datalayout = "e-m:e-p270:32:32-p271:32:32-p272:64:64-i64:64-i128:128-f80:128-n8:16:32:64-S128"
target triple = "x86_64-unknown-linux-gnu"

@alloc_e6758488a51c40069ade2309416f0500 = private unnamed_addr constant <{ [6 x i8] }> <{ [6 x i8] c"<anon>" }>, align 1
@alloc_5491181a412bbabfebff41ab96c406e4 = private unnamed_addr constant <{ ptr, [16 x i8] }> <{ ptr @alloc_e6758488a51c40069ade2309416f0500, [16 x i8] c"\06\00\00\00\00\00\00\00\01\00\00\00\1F\00\00\00" }>, align 8

; probe4::probe
; Function Attrs: nonlazybind uwtable
define void @_ZN6probe45probe17hf75d2439df2c84f7E() unnamed_addr #0 {
start:
  %0 = call i1 @llvm.expect.i1(i1 false, i1 false)
  br i1 %0, label %panic.i, label %"_ZN4core3num21_$LT$impl$u20$u32$GT$10div_euclid17h10b473a45e6adf2dE.exit"

panic.i:                                          ; preds = %start
; call core::panicking::panic_const::panic_const_div_by_zero
  call void @_ZN4core9panicking11panic_const23panic_const_div_by_zero17hea1d5e9cb514a5cfE(ptr align 8 @alloc_5491181a412bbabfebff41ab96c406e4) #3
  unreachable

"_ZN4core3num21_$LT$impl$u20$u32$GT$10div_euclid17h10b473a45e6adf2dE.exit": ; preds = %start
  ret void
}

; Function Attrs: nocallback nofree nosync nounwind willreturn memory(none)
declare i1 @llvm.expect.i1(i1, i1) #1

; core::panicking::panic_const::panic_const_div_by_zero
; Function Attrs: cold noinline noreturn nonlazybind uwtable
declare void @_ZN4core9panicking11panic_const23panic_const_div_by_zero17hea1d5e9cb514a5cfE(ptr align 8) unnamed_addr #2

attributes #0 = { nonlazybind uwtable "probe-stack"="inline-asm" "target-cpu"="x86-64" }
attributes #1 = { nocallback nofree nosync nounwind willreturn memory(none) }
attributes #2 = { cold noinline noreturn nonlazybind uwtable "probe-stack"="inline-asm" "target-cpu"="x86-64" }
attributes #3 = { noreturn }

!llvm.module.flags = !{!0, !1}
!llvm.ident = !{!2}

!0 = !{i32 8, !"PIC Level", i32 2}
!1 = !{i32 2, !"RtLibUseGOT", i32 1}
!2 = !{!"rustc version 1.79.0-nightly (1684a753d 2024-04-01)"}
